; Function Attrs: mustprogress sspstrong uwtable
define internal void @_ZL34__itt_task_end_overlapped_init_3_0PK13___itt_domain9___itt_id(ptr noundef %0, ptr noundef readonly byval(%struct.___itt_id) align 8 captures(none) %1) #0 {
  %3 = load volatile i64, ptr getelementptr inbounds nuw (i8, ptr @__itt__ittapi_global, i64 32), align 8, !tbaa !3
  %4 = icmp eq i64 %3, 0
  %5 = load ptr, ptr getelementptr inbounds nuw (i8, ptr @__itt__ittapi_global, i64 136), align 8
  %6 = icmp eq ptr %5, null
  %or.cond = select i1 %4, i1 %6, i1 false
  br i1 %or.cond, label %7, label %8

7:                                                ; preds = %2
  tail call void @ITT_DoOneTimeInitialization()
  br label %8

8:                                                ; preds = %7, %2
  %9 = load ptr, ptr @__itt_task_end_overlapped_ptr__3_0, align 8, !tbaa !21
  %10 = icmp ne ptr %9, null
  %11 = icmp ne ptr %9, @_ZL34__itt_task_end_overlapped_init_3_0PK13___itt_domain9___itt_id
  %or.cond3 = and i1 %10, %11
  br i1 %or.cond3, label %12, label %13

12:                                               ; preds = %8
  tail call void %9(ptr noundef %0, ptr noundef nonnull byval(%struct.___itt_id) align 8 %1)
  br label %13

13:                                               ; preds = %8, %12
  ret void
}